; Function Attrs: mustprogress nounwind uwtable
define hidden void @_ZN16G1ConcurrentMark15add_root_regionEP12G1HeapRegion(ptr noundef nonnull align 8 dereferenceable(1849) %0, ptr noundef %1) local_unnamed_addr #0 align 2 {
  %3 = getelementptr inbounds i8, ptr %0, i64 96
  %4 = getelementptr inbounds i8, ptr %1, i64 48
  %5 = load i32, ptr %4, align 8
  %6 = getelementptr inbounds i8, ptr %0, i64 1832
  %7 = load ptr, ptr %6, align 8
  %8 = zext i32 %5 to i64
  %9 = getelementptr inbounds ptr, ptr %7, i64 %8
  %10 = load volatile ptr, ptr %9, align 8
  %11 = getelementptr inbounds i8, ptr %1, i64 16
  %12 = load volatile ptr, ptr %11, align 8
  %13 = getelementptr inbounds i8, ptr %0, i64 112
  %14 = tail call noundef i64 asm sideeffect "lock xaddq $0,($2)", "=r,0,r,~{cc},~{memory},~{dirflag},~{fpsr},~{flags}"(i64 1, ptr nonnull %13) #22, !srcloc !15
  %15 = load ptr, ptr %3, align 8
  %16 = getelementptr inbounds %class.MemRegion, ptr %15, i64 %14
  store ptr %10, ptr %16, align 8
  %17 = load ptr, ptr %3, align 8
  %18 = getelementptr inbounds %class.MemRegion, ptr %17, i64 %14
  %19 = load ptr, ptr %18, align 8
  %20 = ptrtoint ptr %12 to i64
  %21 = ptrtoint ptr %19 to i64
  %22 = sub i64 %20, %21
  %23 = lshr i64 %22, 3
  %24 = getelementptr inbounds i8, ptr %18, i64 8
  store i64 %23, ptr %24, align 8
  ret void
}